; Function Attrs: mustprogress nofree norecurse nosync nounwind null_pointer_is_valid sspstrong willreturn memory(argmem: write) uwtable
define internal void @get_len_unicode(ptr noundef writeonly captures(none) initializes((0, 4)) %0, ptr noundef writeonly captures(none) initializes((0, 4)) %1, ptr readnone captures(none) %2, i32 %3, i32 noundef %4, i1 noundef zeroext %5) #9 {
  %.sink.v = select i1 %5, i32 3, i32 6
  %.sink = mul i32 %4, %.sink.v
  %not. = xor i1 %5, true
  %7 = zext i1 %not. to i32
  %storemerge = shl i32 %4, %7
  store i32 %.sink, ptr %0, align 4
  store i32 %storemerge, ptr %1, align 4
  ret void
}